; Function Attrs: mustprogress nounwind uwtable
define hidden void @_ZN13LIR_Assembler14clinit_barrierEP8ciMethod(ptr nocapture noundef nonnull readonly align 8 dereferenceable(96) %0, ptr nocapture noundef readonly %1) local_unnamed_addr #0 align 2 {
  %3 = alloca %class.Label, align 8
  %4 = alloca %class.AddressLiteral, align 8
  %5 = alloca %class.RuntimeAddress, align 8
  store i32 -1, ptr %3, align 8
  %6 = getelementptr inbounds i8, ptr %3, i64 20
  store i32 0, ptr %6, align 4
  %7 = getelementptr inbounds i8, ptr %3, i64 24
  store ptr null, ptr %7, align 8
  %8 = getelementptr inbounds i8, ptr %3, i64 32
  store i8 0, ptr %8, align 8
  %9 = load ptr, ptr %0, align 8
  %10 = getelementptr inbounds i8, ptr %1, i64 40
  %11 = load ptr, ptr %10, align 8
  %12 = getelementptr inbounds i8, ptr %11, i64 16
  %13 = load ptr, ptr %12, align 8
  tail call void @_ZN14MacroAssembler12mov_metadataE8RegisterP8Metadata(ptr noundef nonnull align 8 dereferenceable(40) %9, i32 10, ptr noundef %13) #15
  %14 = load ptr, ptr %0, align 8
  call void @_ZN14MacroAssembler14clinit_barrierE8RegisterS0_P5LabelS2_(ptr noundef nonnull align 8 dereferenceable(40) %14, i32 10, i32 15, ptr noundef nonnull %3, ptr noundef null) #15
  %15 = load ptr, ptr %0, align 8
  %16 = load ptr, ptr @_ZN13SharedRuntime18_wrong_method_blobE, align 8
  %17 = getelementptr inbounds i8, ptr %16, i64 36
  %18 = load i32, ptr %17, align 4
  %19 = sext i32 %18 to i64
  %20 = getelementptr inbounds i8, ptr %16, i64 %19
  call void @_ZN14AddressLiteralC2EPhN9relocInfo9relocTypeE(ptr noundef nonnull align 8 dereferenceable(56) %5, ptr noundef %20, i32 noundef 6) #15
  %21 = load ptr, ptr %5, align 8
  %22 = getelementptr inbounds i8, ptr %21, i64 16
  %23 = load ptr, ptr %22, align 8
  call void %23(ptr noundef nonnull align 8 dereferenceable(20) %5, ptr noundef nonnull align 8 dereferenceable(40) %4) #15
  %24 = getelementptr inbounds i8, ptr %4, i64 40
  %25 = getelementptr inbounds i8, ptr %5, i64 40
  call void @llvm.memcpy.p0.p0.i64(ptr noundef nonnull align 8 dereferenceable(16) %24, ptr noundef nonnull align 8 dereferenceable(16) %25, i64 16, i1 false)
  call void @_ZN14MacroAssembler4jumpE14AddressLiteral8Register(ptr noundef nonnull align 8 dereferenceable(40) %15, ptr noundef nonnull %4, i32 -1) #15
  %26 = load ptr, ptr %0, align 8
  call void @_ZN17AbstractAssembler4bindER5Label(ptr noundef nonnull align 8 dereferenceable(24) %26, ptr noundef nonnull align 8 dereferenceable(33) %3) #15
  ret void
}